target datalayout = "e-m:e-p270:32:32-p271:32:32-p272:64:64-i64:64-i128:128-f80:128-n8:16:32:64-S128"
target triple = "x86_64-pc-linux-gnu"

%struct.V360Context = type { ptr, i32, i32, i32, i32, i32, i32, i32, ptr, ptr, ptr, ptr, ptr, [6 x i32], [6 x i32], [6 x i32], [6 x i32], [3 x i32], i32, i32, float, float, i32, i32, float, float, float, float, float, i32, i32, i32, i32, i32, i32, i32, float, float, float, float, float, float, [2 x float], [2 x float], [2 x [4 x float]], [3 x float], i32, i32, i32, i32, [4 x i32], [4 x i32], [4 x i32], [4 x i32], [4 x i32], [4 x i32], [4 x i32], [4 x i32], [4 x i32], [4 x i32], [4 x i32], i32, i32, i32, i32, i32, i32, ptr, [4 x i32], ptr, ptr, ptr, ptr, ptr }

; Function Attrs: alwaysinline nounwind willreturn memory(none) uwtable
define internal i32 @av_clip_c(i32 noundef %0, i32 noundef %1, i32 noundef %2) #3 {
  %4 = alloca i32, align 4
  %5 = alloca i32, align 4
  %6 = alloca i32, align 4
  %7 = alloca i32, align 4
  store i32 %0, ptr %5, align 4, !tbaa !9
  store i32 %1, ptr %6, align 4, !tbaa !9
  store i32 %2, ptr %7, align 4, !tbaa !9
  %8 = load i32, ptr %5, align 4, !tbaa !9
  %9 = load i32, ptr %6, align 4, !tbaa !9
  %10 = icmp slt i32 %8, %9
  br i1 %10, label %11, label %13

11:                                               ; preds = %3
  %12 = load i32, ptr %6, align 4, !tbaa !9
  store i32 %12, ptr %4, align 4
  br label %21

13:                                               ; preds = %3
  %14 = load i32, ptr %5, align 4, !tbaa !9
  %15 = load i32, ptr %7, align 4, !tbaa !9
  %16 = icmp sgt i32 %14, %15
  br i1 %16, label %17, label %19

17:                                               ; preds = %13
  %18 = load i32, ptr %7, align 4, !tbaa !9
  store i32 %18, ptr %4, align 4
  br label %21

19:                                               ; preds = %13
  %20 = load i32, ptr %5, align 4, !tbaa !9
  store i32 %20, ptr %4, align 4
  br label %21

21:                                               ; preds = %19, %17, %11
  %22 = load i32, ptr %4, align 4
  ret i32 %22
}

; Function Attrs: alwaysinline nounwind uwtable
define internal float @scale(float noundef %0, float noundef %1) #12 {
  %3 = alloca float, align 4
  %4 = alloca float, align 4
  store float %0, ptr %3, align 4, !tbaa !99
  store float %1, ptr %4, align 4, !tbaa !99
  %5 = load float, ptr %3, align 4, !tbaa !99
  %6 = call nsz float @llvm.fmuladd.f32(float 5.000000e-01, float %5, float 5.000000e-01)
  %7 = load float, ptr %4, align 4, !tbaa !99
  %8 = fsub nsz float %7, 1.000000e+00
  %9 = fmul nsz float %6, %8
  ret float %9
}

; Function Attrs: nounwind uwtable
define internal i32 @xyz_to_pannini(ptr noundef %0, ptr noundef %1, i32 noundef %2, i32 noundef %3, ptr noundef %4, ptr noundef %5, ptr noundef %6, ptr noundef %7) #0 {
  %9 = alloca ptr, align 8
  %10 = alloca ptr, align 8
  %11 = alloca i32, align 4
  %12 = alloca i32, align 4
  %13 = alloca ptr, align 8
  %14 = alloca ptr, align 8
  %15 = alloca ptr, align 8
  %16 = alloca ptr, align 8
  %17 = alloca float, align 4
  %18 = alloca float, align 4
  %19 = alloca float, align 4
  %20 = alloca float, align 4
  %21 = alloca float, align 4
  %22 = alloca float, align 4
  %23 = alloca float, align 4
  %24 = alloca float, align 4
  %25 = alloca i32, align 4
  %26 = alloca i32, align 4
  %27 = alloca i32, align 4
  %28 = alloca i32, align 4
  %29 = alloca i32, align 4
  %30 = alloca i32, align 4
  store ptr %0, ptr %9, align 8, !tbaa !4
  store ptr %1, ptr %10, align 8, !tbaa !188
  store i32 %2, ptr %11, align 4, !tbaa !9
  store i32 %3, ptr %12, align 4, !tbaa !9
  store ptr %4, ptr %13, align 8, !tbaa !21
  store ptr %5, ptr %14, align 8, !tbaa !21
  store ptr %6, ptr %15, align 8, !tbaa !188
  store ptr %7, ptr %16, align 8, !tbaa !188
  call void @llvm.lifetime.start.p0(i64 4, ptr %17) #13
  %31 = load ptr, ptr %10, align 8, !tbaa !188
  %32 = getelementptr inbounds float, ptr %31, i64 0
  %33 = load float, ptr %32, align 4, !tbaa !99
  %34 = load ptr, ptr %10, align 8, !tbaa !188
  %35 = getelementptr inbounds float, ptr %34, i64 2
  %36 = load float, ptr %35, align 4, !tbaa !99
  %37 = call nsz float @llvm.atan2.f32(float %33, float %36)
  store float %37, ptr %17, align 4, !tbaa !99
  call void @llvm.lifetime.start.p0(i64 4, ptr %18) #13
  %38 = load ptr, ptr %10, align 8, !tbaa !188
  %39 = getelementptr inbounds float, ptr %38, i64 1
  %40 = load float, ptr %39, align 4, !tbaa !99
  %41 = call nsz float @llvm.asin.f32(float %40)
  store float %41, ptr %18, align 4, !tbaa !99
  call void @llvm.lifetime.start.p0(i64 4, ptr %19) #13
  %42 = load ptr, ptr %9, align 8, !tbaa !4
  %43 = getelementptr inbounds nuw %struct.V360Context, ptr %42, i32 0, i32 39
  %44 = load float, ptr %43, align 8, !tbaa !109
  store float %44, ptr %19, align 4, !tbaa !99
  call void @llvm.lifetime.start.p0(i64 4, ptr %20) #13
  %45 = load float, ptr %19, align 4, !tbaa !99
  %46 = fadd nsz float %45, 1.000000e+00
  %47 = load float, ptr %19, align 4, !tbaa !99
  %48 = load float, ptr %17, align 4, !tbaa !99
  %49 = call nsz float @llvm.cos.f32(float %48)
  %50 = fadd nsz float %47, %49
  %51 = fdiv nsz float %46, %50
  store float %51, ptr %20, align 4, !tbaa !99
  call void @llvm.lifetime.start.p0(i64 4, ptr %21) #13
  %52 = load float, ptr %20, align 4, !tbaa !99
  %53 = load float, ptr %17, align 4, !tbaa !99
  %54 = call nsz float @llvm.sin.f32(float %53)
  %55 = fmul nsz float %52, %54
  store float %55, ptr %21, align 4, !tbaa !99
  call void @llvm.lifetime.start.p0(i64 4, ptr %22) #13
  %56 = load float, ptr %20, align 4, !tbaa !99
  %57 = load float, ptr %18, align 4, !tbaa !99
  %58 = call nsz float @llvm.tan.f32(float %57)
  %59 = fmul nsz float %56, %58
  store float %59, ptr %22, align 4, !tbaa !99
  call void @llvm.lifetime.start.p0(i64 4, ptr %23) #13
  %60 = load float, ptr %21, align 4, !tbaa !99
  %61 = load i32, ptr %11, align 4, !tbaa !9
  %62 = sitofp i32 %61 to float
  %63 = call nsz float @scale(float noundef %60, float noundef %62)
  store float %63, ptr %23, align 4, !tbaa !99
  call void @llvm.lifetime.start.p0(i64 4, ptr %24) #13
  %64 = load float, ptr %22, align 4, !tbaa !99
  %65 = load i32, ptr %12, align 4, !tbaa !9
  %66 = sitofp i32 %65 to float
  %67 = call nsz float @scale(float noundef %64, float noundef %66)
  store float %67, ptr %24, align 4, !tbaa !99
  call void @llvm.lifetime.start.p0(i64 4, ptr %25) #13
  %68 = load float, ptr %23, align 4, !tbaa !99
  %69 = call nsz float @llvm.floor.f32(float %68)
  %70 = fptosi float %69 to i32
  store i32 %70, ptr %25, align 4, !tbaa !9
  call void @llvm.lifetime.start.p0(i64 4, ptr %26) #13
  %71 = load float, ptr %24, align 4, !tbaa !99
  %72 = call nsz float @llvm.floor.f32(float %71)
  %73 = fptosi float %72 to i32
  store i32 %73, ptr %26, align 4, !tbaa !9
  call void @llvm.lifetime.start.p0(i64 4, ptr %27) #13
  %74 = load i32, ptr %26, align 4, !tbaa !9
  %75 = icmp sge i32 %74, 0
  br i1 %75, label %76, label %92

76:                                               ; preds = %8
  %77 = load i32, ptr %26, align 4, !tbaa !9
  %78 = load i32, ptr %12, align 4, !tbaa !9
  %79 = icmp slt i32 %77, %78
  br i1 %79, label %80, label %92

80:                                               ; preds = %76
  %81 = load i32, ptr %25, align 4, !tbaa !9
  %82 = icmp sge i32 %81, 0
  br i1 %82, label %83, label %92

83:                                               ; preds = %80
  %84 = load i32, ptr %25, align 4, !tbaa !9
  %85 = load i32, ptr %11, align 4, !tbaa !9
  %86 = icmp slt i32 %84, %85
  br i1 %86, label %87, label %92

87:                                               ; preds = %83
  %88 = load ptr, ptr %10, align 8, !tbaa !188
  %89 = getelementptr inbounds float, ptr %88, i64 2
  %90 = load float, ptr %89, align 4, !tbaa !99
  %91 = fcmp nsz oge float %90, 0.000000e+00
  br label %92

92:                                               ; preds = %87, %83, %80, %76, %8
  %93 = phi i1 [ false, %83 ], [ false, %80 ], [ false, %76 ], [ false, %8 ], [ %91, %87 ]
  %94 = zext i1 %93 to i32
  store i32 %94, ptr %27, align 4, !tbaa !9
  %95 = load float, ptr %23, align 4, !tbaa !99
  %96 = load i32, ptr %25, align 4, !tbaa !9
  %97 = sitofp i32 %96 to float
  %98 = fsub nsz float %95, %97
  %99 = load ptr, ptr %15, align 8, !tbaa !188
  store float %98, ptr %99, align 4, !tbaa !99
  %100 = load float, ptr %24, align 4, !tbaa !99
  %101 = load i32, ptr %26, align 4, !tbaa !9
  %102 = sitofp i32 %101 to float
  %103 = fsub nsz float %100, %102
  %104 = load ptr, ptr %16, align 8, !tbaa !188
  store float %103, ptr %104, align 4, !tbaa !99
  call void @llvm.lifetime.start.p0(i64 4, ptr %28) #13
  store i32 0, ptr %28, align 4, !tbaa !9
  br label %105

105:                                              ; preds = %161, %92
  %106 = load i32, ptr %28, align 4, !tbaa !9
  %107 = icmp slt i32 %106, 4
  br i1 %107, label %109, label %108

108:                                              ; preds = %105
  store i32 2, ptr %29, align 4
  call void @llvm.lifetime.end.p0(i64 4, ptr %28) #13
  br label %164

109:                                              ; preds = %105
  call void @llvm.lifetime.start.p0(i64 4, ptr %30) #13
  store i32 0, ptr %30, align 4, !tbaa !9
  br label %110

110:                                              ; preds = %157, %109
  %111 = load i32, ptr %30, align 4, !tbaa !9
  %112 = icmp slt i32 %111, 4
  br i1 %112, label %114, label %113

113:                                              ; preds = %110
  store i32 5, ptr %29, align 4
  call void @llvm.lifetime.end.p0(i64 4, ptr %30) #13
  br label %160

114:                                              ; preds = %110
  %115 = load i32, ptr %27, align 4, !tbaa !9
  %116 = icmp ne i32 %115, 0
  br i1 %116, label %117, label %125

117:                                              ; preds = %114
  %118 = load i32, ptr %25, align 4, !tbaa !9
  %119 = load i32, ptr %30, align 4, !tbaa !9
  %120 = add nsw i32 %118, %119
  %121 = sub nsw i32 %120, 1
  %122 = load i32, ptr %11, align 4, !tbaa !9
  %123 = sub nsw i32 %122, 1
  %124 = call i32 @av_clip_c(i32 noundef %121, i32 noundef 0, i32 noundef %123) #14
  br label %126

125:                                              ; preds = %114
  br label %126

126:                                              ; preds = %125, %117
  %127 = phi i32 [ %124, %117 ], [ 0, %125 ]
  %128 = trunc i32 %127 to i16
  %129 = load ptr, ptr %13, align 8, !tbaa !21
  %130 = load i32, ptr %28, align 4, !tbaa !9
  %131 = sext i32 %130 to i64
  %132 = getelementptr inbounds [4 x i16], ptr %129, i64 %131
  %133 = load i32, ptr %30, align 4, !tbaa !9
  %134 = sext i32 %133 to i64
  %135 = getelementptr inbounds [4 x i16], ptr %132, i64 0, i64 %134
  store i16 %128, ptr %135, align 2, !tbaa !23
  %136 = load i32, ptr %27, align 4, !tbaa !9
  %137 = icmp ne i32 %136, 0
  br i1 %137, label %138, label %146

138:                                              ; preds = %126
  %139 = load i32, ptr %26, align 4, !tbaa !9
  %140 = load i32, ptr %28, align 4, !tbaa !9
  %141 = add nsw i32 %139, %140
  %142 = sub nsw i32 %141, 1
  %143 = load i32, ptr %12, align 4, !tbaa !9
  %144 = sub nsw i32 %143, 1
  %145 = call i32 @av_clip_c(i32 noundef %142, i32 noundef 0, i32 noundef %144) #14
  br label %147

146:                                              ; preds = %126
  br label %147

147:                                              ; preds = %146, %138
  %148 = phi i32 [ %145, %138 ], [ 0, %146 ]
  %149 = trunc i32 %148 to i16
  %150 = load ptr, ptr %14, align 8, !tbaa !21
  %151 = load i32, ptr %28, align 4, !tbaa !9
  %152 = sext i32 %151 to i64
  %153 = getelementptr inbounds [4 x i16], ptr %150, i64 %152
  %154 = load i32, ptr %30, align 4, !tbaa !9
  %155 = sext i32 %154 to i64
  %156 = getelementptr inbounds [4 x i16], ptr %153, i64 0, i64 %155
  store i16 %149, ptr %156, align 2, !tbaa !23
  br label %157

157:                                              ; preds = %147
  %158 = load i32, ptr %30, align 4, !tbaa !9
  %159 = add nsw i32 %158, 1
  store i32 %159, ptr %30, align 4, !tbaa !9
  br label %110, !llvm.loop !224

160:                                              ; preds = %113
  br label %161

161:                                              ; preds = %160
  %162 = load i32, ptr %28, align 4, !tbaa !9
  %163 = add nsw i32 %162, 1
  store i32 %163, ptr %28, align 4, !tbaa !9
  br label %105, !llvm.loop !225

164:                                              ; preds = %108
  %165 = load i32, ptr %27, align 4, !tbaa !9
  store i32 1, ptr %29, align 4
  call void @llvm.lifetime.end.p0(i64 4, ptr %27) #13
  call void @llvm.lifetime.end.p0(i64 4, ptr %26) #13
  call void @llvm.lifetime.end.p0(i64 4, ptr %25) #13
  call void @llvm.lifetime.end.p0(i64 4, ptr %24) #13
  call void @llvm.lifetime.end.p0(i64 4, ptr %23) #13
  call void @llvm.lifetime.end.p0(i64 4, ptr %22) #13
  call void @llvm.lifetime.end.p0(i64 4, ptr %21) #13
  call void @llvm.lifetime.end.p0(i64 4, ptr %20) #13
  call void @llvm.lifetime.end.p0(i64 4, ptr %19) #13
  call void @llvm.lifetime.end.p0(i64 4, ptr %18) #13
  call void @llvm.lifetime.end.p0(i64 4, ptr %17) #13
  ret i32 %165
}