; Function Attrs: nofree norecurse nosync nounwind memory(argmem: readwrite) uwtable
define internal range(i32 0, 2) i32 @xyz_to_pannini(ptr noundef readonly captures(none) %0, ptr noundef readonly captures(none) %1, i32 noundef %2, i32 noundef %3, ptr noundef writeonly captures(none) %4, ptr noundef writeonly captures(none) %5, ptr noundef writeonly captures(none) initializes((0, 4)) %6, ptr noundef writeonly captures(none) initializes((0, 4)) %7) #1 {
  %9 = load float, ptr %1, align 4, !tbaa !49
  %10 = getelementptr inbounds nuw i8, ptr %1, i64 8
  %11 = load float, ptr %10, align 4, !tbaa !49
  %12 = tail call nsz float @llvm.atan2.f32(float %9, float %11)
  %13 = getelementptr inbounds nuw i8, ptr %1, i64 4
  %14 = load float, ptr %13, align 4, !tbaa !49
  %15 = tail call nsz float @llvm.asin.f32(float %14)
  %16 = getelementptr inbounds nuw i8, ptr %0, i64 272
  %17 = load float, ptr %16, align 8, !tbaa !100
  %18 = fadd nsz float %17, 1.000000e+00
  %19 = tail call nsz float @llvm.cos.f32(float %12)
  %20 = fadd nsz float %17, %19
  %21 = fdiv nsz float %18, %20
  %22 = tail call nsz float @llvm.sin.f32(float %12)
  %23 = fmul nsz float %22, %21
  %24 = tail call nsz float @llvm.tan.f32(float %15)
  %25 = fmul nsz float %24, %21
  %26 = sitofp i32 %2 to float
  %27 = tail call nsz float @llvm.fmuladd.f32(float %23, float 5.000000e-01, float 5.000000e-01)
  %28 = fadd nsz float %26, -1.000000e+00
  %29 = fmul nsz float %28, %27
  %30 = sitofp i32 %3 to float
  %31 = tail call nsz float @llvm.fmuladd.f32(float %25, float 5.000000e-01, float 5.000000e-01)
  %32 = fadd nsz float %30, -1.000000e+00
  %33 = fmul nsz float %32, %31
  %34 = tail call nsz float @llvm.floor.f32(float %29)
  %35 = fptosi float %34 to i32
  %36 = tail call nsz float @llvm.floor.f32(float %33)
  %37 = fptosi float %36 to i32
  %38 = icmp sgt i32 %37, -1
  br i1 %38, label %43, label %.thread

.thread:                                          ; preds = %8
  %39 = sitofp i32 %35 to float
  %40 = fsub nsz float %29, %39
  store float %40, ptr %6, align 4, !tbaa !49
  %41 = sitofp i32 %37 to float
  %42 = fsub nsz float %33, %41
  store float %42, ptr %7, align 4, !tbaa !49
  br label %.preheader.preheader

43:                                               ; preds = %8
  %44 = icmp sgt i32 %3, %37
  %45 = icmp sgt i32 %35, -1
  %46 = icmp sgt i32 %2, %35
  %47 = and i1 %45, %46
  %or.cond52 = select i1 %44, i1 %47, i1 false
  %48 = fcmp nsz oge float %11, 0.000000e+00
  %spec.select = select i1 %or.cond52, i1 %48, i1 false
  %49 = sitofp i32 %35 to float
  %50 = fsub nsz float %29, %49
  store float %50, ptr %6, align 4, !tbaa !49
  %51 = uitofp nneg i32 %37 to float
  %52 = fsub nsz float %33, %51
  store float %52, ptr %7, align 4, !tbaa !49
  br i1 %spec.select, label %.preheader.us.preheader, label %.preheader.preheader

.preheader.preheader:                             ; preds = %.thread, %43
  br label %.preheader

.preheader.us.preheader:                          ; preds = %43
  %53 = zext nneg i32 %35 to i64
  %54 = zext nneg i32 %37 to i64
  br label %.preheader.us

.preheader.us:                                    ; preds = %.preheader.us.preheader, %.split.us.us
  %indvars.iv71 = phi i64 [ 0, %.preheader.us.preheader ], [ %indvars.iv.next72, %.split.us.us ]
  %55 = add nuw nsw i64 %indvars.iv71, %54
  %56 = trunc nsw i64 %55 to i32
  %57 = tail call i32 @llvm.smin.i32(i32 %56, i32 %3)
  %.inv55.us.not = icmp eq i64 %55, 0
  %58 = trunc i32 %57 to i16
  %59 = add i16 %58, -1
  %60 = select i1 %.inv55.us.not, i16 0, i16 %59
  br label %61

61:                                               ; preds = %61, %.preheader.us
  %indvars.iv67 = phi i64 [ %indvars.iv.next68, %61 ], [ 0, %.preheader.us ]
  %62 = add nuw nsw i64 %indvars.iv67, %53
  %63 = trunc nsw i64 %62 to i32
  %64 = tail call i32 @llvm.smin.i32(i32 %63, i32 %2)
  %.inv.us.us.not = icmp eq i64 %62, 0
  %65 = trunc i32 %64 to i16
  %66 = add i16 %65, -1
  %67 = select i1 %.inv.us.us.not, i16 0, i16 %66
  %68 = getelementptr inbounds nuw [4 x i16], ptr %4, i64 %indvars.iv71, i64 %indvars.iv67
  store i16 %67, ptr %68, align 2, !tbaa !15
  %69 = getelementptr inbounds nuw [4 x i16], ptr %5, i64 %indvars.iv71, i64 %indvars.iv67
  store i16 %60, ptr %69, align 2, !tbaa !15
  %indvars.iv.next68 = add nuw nsw i64 %indvars.iv67, 1
  %exitcond70.not = icmp eq i64 %indvars.iv.next68, 4
  br i1 %exitcond70.not, label %.split.us.us, label %61, !llvm.loop !213

.split.us.us:                                     ; preds = %61
  %indvars.iv.next72 = add nuw nsw i64 %indvars.iv71, 1
  %exitcond74.not = icmp eq i64 %indvars.iv.next72, 4
  br i1 %exitcond74.not, label %.split60.us, label %.preheader.us, !llvm.loop !214

.preheader:                                       ; preds = %.preheader.preheader, %.split
  %indvars.iv63 = phi i64 [ %indvars.iv.next64, %.split ], [ 0, %.preheader.preheader ]
  br label %71

.split60.us:                                      ; preds = %.split, %.split.us.us
  %70 = phi i32 [ 1, %.split.us.us ], [ 0, %.split ]
  ret i32 %70

.split:                                           ; preds = %71
  %indvars.iv.next64 = add nuw nsw i64 %indvars.iv63, 1
  %exitcond66.not = icmp eq i64 %indvars.iv.next64, 4
  br i1 %exitcond66.not, label %.split60.us, label %.preheader, !llvm.loop !214

71:                                               ; preds = %.preheader, %71
  %indvars.iv = phi i64 [ 0, %.preheader ], [ %indvars.iv.next, %71 ]
  %72 = getelementptr inbounds nuw [4 x i16], ptr %4, i64 %indvars.iv63, i64 %indvars.iv
  store i16 0, ptr %72, align 2, !tbaa !15
  %73 = getelementptr inbounds nuw [4 x i16], ptr %5, i64 %indvars.iv63, i64 %indvars.iv
  store i16 0, ptr %73, align 2, !tbaa !15
  %indvars.iv.next = add nuw nsw i64 %indvars.iv, 1
  %exitcond.not = icmp eq i64 %indvars.iv.next, 4
  br i1 %exitcond.not, label %.split, label %71, !llvm.loop !213
}